
bsp.elf:     file format elf32-littlearm


Disassembly of section .text:

87800000 <_start>:
87800000:	e10f0000 	mrs	r0, CPSR
87800004:	e3c0001f 	bic	r0, r0, #31
87800008:	e3800013 	orr	r0, r0, #19
8780000c:	e129f000 	msr	CPSR_fc, r0
87800010:	e51fd000 	ldr	sp, [pc, #-0]	@ 87800018 <_start+0x18>
87800014:	ea000044 	b	8780012c <main>
87800018:	80200000 	eorhi	r0, r0, r0
8780001c:	00001941 	andeq	r1, r0, r1, asr #18
87800020:	61656100 	cmnvs	r5, r0, lsl #2
87800024:	01006962 	tsteq	r0, r2, ror #18
87800028:	0000000f 	andeq	r0, r0, pc
8780002c:	00543405 	subseq	r3, r4, r5, lsl #8
87800030:	01080206 	tsteq	r8, r6, lsl #4
87800034:	00000109 	andeq	r0, r0, r9, lsl #2

87800038 <clk_enable>:
87800038:	e3e02000 	mvn	r2, #0
8780003c:	e59f301c 	ldr	r3, [pc, #28]	@ 87800060 <clk_enable+0x28>
87800040:	e5832068 	str	r2, [r3, #104]	@ 0x68
87800044:	e583206c 	str	r2, [r3, #108]	@ 0x6c
87800048:	e5832070 	str	r2, [r3, #112]	@ 0x70
8780004c:	e5832074 	str	r2, [r3, #116]	@ 0x74
87800050:	e5832078 	str	r2, [r3, #120]	@ 0x78
87800054:	e583207c 	str	r2, [r3, #124]	@ 0x7c
87800058:	e5832080 	str	r2, [r3, #128]	@ 0x80
8780005c:	e12fff1e 	bx	lr
87800060:	020c4000 	andeq	r4, ip, #0

87800064 <led_init>:
87800064:	e3a00005 	mov	r0, #5
87800068:	e59f2028 	ldr	r2, [pc, #40]	@ 87800098 <led_init+0x34>
8780006c:	e59f1028 	ldr	r1, [pc, #40]	@ 8780009c <led_init+0x38>
87800070:	e5820068 	str	r0, [r2, #104]	@ 0x68
87800074:	e59f3024 	ldr	r3, [pc, #36]	@ 878000a0 <led_init+0x3c>
87800078:	e58212f4 	str	r1, [r2, #756]	@ 0x2f4
8780007c:	e5932004 	ldr	r2, [r3, #4]
87800080:	e3822008 	orr	r2, r2, #8
87800084:	e5832004 	str	r2, [r3, #4]
87800088:	e5932000 	ldr	r2, [r3]
8780008c:	e3c22008 	bic	r2, r2, #8
87800090:	e5832000 	str	r2, [r3]
87800094:	e12fff1e 	bx	lr
87800098:	020e0000 	andeq	r0, lr, #0
8780009c:	000010b0 	strheq	r1, [r0], -r0
878000a0:	0209c000 	andeq	ip, r9, #0

878000a4 <led_switch>:
878000a4:	e3500000 	cmp	r0, #0
878000a8:	112fff1e 	bxne	lr
878000ac:	e59f2014 	ldr	r2, [pc, #20]	@ 878000c8 <led_switch+0x24>
878000b0:	e5923000 	ldr	r3, [r2]
878000b4:	e3510000 	cmp	r1, #0
878000b8:	13c33008 	bicne	r3, r3, #8
878000bc:	03833008 	orreq	r3, r3, #8
878000c0:	e5823000 	str	r3, [r2]
878000c4:	e12fff1e 	bx	lr
878000c8:	0209c000 	andeq	ip, r9, #0

878000cc <delay_short>:
878000cc:	e24dd008 	sub	sp, sp, #8
878000d0:	e58d0004 	str	r0, [sp, #4]
878000d4:	e59d3004 	ldr	r3, [sp, #4]
878000d8:	e2432001 	sub	r2, r3, #1
878000dc:	e3530000 	cmp	r3, #0
878000e0:	e58d2004 	str	r2, [sp, #4]
878000e4:	1afffffa 	bne	878000d4 <delay_short+0x8>
878000e8:	e28dd008 	add	sp, sp, #8
878000ec:	e12fff1e 	bx	lr

878000f0 <delay>:
878000f0:	e24dd008 	sub	sp, sp, #8
878000f4:	e58d0004 	str	r0, [sp, #4]
878000f8:	e59d3004 	ldr	r3, [sp, #4]
878000fc:	e2432001 	sub	r2, r3, #1
87800100:	e3530000 	cmp	r3, #0
87800104:	e58d2004 	str	r2, [sp, #4]
87800108:	0a000004 	beq	87800120 <delay+0x30>
8780010c:	e59f2014 	ldr	r2, [pc, #20]	@ 87800128 <delay+0x38>
87800110:	e3520000 	cmp	r2, #0
87800114:	e2422001 	sub	r2, r2, #1
87800118:	1afffffc 	bne	87800110 <delay+0x20>
8780011c:	eafffff5 	b	878000f8 <delay+0x8>
87800120:	e28dd008 	add	sp, sp, #8
87800124:	e12fff1e 	bx	lr
87800128:	000007ff 	strdeq	r0, [r0], -pc	@ <UNPREDICTABLE>

Disassembly of section .text.startup:

8780012c <main>:
8780012c:	e92d4010 	push	{r4, lr}
87800130:	ebffffc0 	bl	87800038 <clk_enable>
87800134:	ebffffca 	bl	87800064 <led_init>
87800138:	e3a01001 	mov	r1, #1
8780013c:	e3a00000 	mov	r0, #0
87800140:	ebffffd7 	bl	878000a4 <led_switch>
87800144:	e3a00f7d 	mov	r0, #500	@ 0x1f4
87800148:	ebffffe8 	bl	878000f0 <delay>
8780014c:	e3a01000 	mov	r1, #0
87800150:	e1a00001 	mov	r0, r1
87800154:	ebffffd2 	bl	878000a4 <led_switch>
87800158:	e3a00f7d 	mov	r0, #500	@ 0x1f4
8780015c:	ebffffe3 	bl	878000f0 <delay>
87800160:	eafffff4 	b	87800138 <main+0xc>

Disassembly of section .comment:

00000000 <.comment>:
   0:	3a434347 	bcc	10d0d24 <_start-0x8672f2dc>
   4:	72412820 	subvc	r2, r1, #32, 16	@ 0x200000
   8:	4e47206d 	cdpmi	0, 4, cr2, cr7, cr13, {3}
   c:	6f542055 	svcvs	0x00542055
  10:	68636c6f 	stmdavs	r3!, {r0, r1, r2, r3, r5, r6, sl, fp, sp, lr}^
  14:	206e6961 	rsbcs	r6, lr, r1, ror #18
  18:	322e3431 	eorcc	r3, lr, #822083584	@ 0x31000000
  1c:	6c65522e 	stclvs	2, cr5, [r5], #-184	@ 0xffffff48
  20:	42282031 	eormi	r2, r8, #49	@ 0x31
  24:	646c6975 	strbtvs	r6, [ip], #-2421	@ 0xfffff68b
  28:	6d726120 	ldclvs	1, cr6, [r2, #-128]!	@ 0xffffff80
  2c:	2e34312d 	cdpcs	1, 3, cr3, cr4, cr13, {1}
  30:	29293235 	stmdbcs	r9!, {r0, r2, r4, r5, r9, ip, sp}
  34:	2e343120 	cdpcs	1, 3, cr3, cr4, cr0, {1}
  38:	20312e32 	eorscs	r2, r1, r2, lsr lr
  3c:	34323032 	ldrtcc	r3, [r2], #-50	@ 0xffffffce
  40:	39313131 	ldmdbcc	r1!, {r0, r4, r5, r8, ip, sp}
	...

Disassembly of section .ARM.attributes:

00000000 <.ARM.attributes>:
   0:	00002541 	andeq	r2, r0, r1, asr #10
   4:	61656100 	cmnvs	r5, r0, lsl #2
   8:	01006962 	tsteq	r0, r2, ror #18
   c:	0000001b 	andeq	r0, r0, fp, lsl r0
  10:	00543405 	subseq	r3, r4, r5, lsl #8
  14:	01080206 	tsteq	r8, r6, lsl #4
  18:	04120109 	ldreq	r0, [r2], #-265	@ 0xfffffef7
  1c:	01150114 	tsteq	r5, r4, lsl r1
  20:	01180317 	tsteq	r8, r7, lsl r3
  24:	Address 0x24 is out of bounds.

